target datalayout = "e-m:e-p270:32:32-p271:32:32-p272:64:64-i64:64-i128:128-f80:128-n8:16:32:64-S128"
target triple = "x86_64-pc-linux-gnu"

%struct.AVCodecContext = type { ptr, i32, i32, ptr, i32, i32, ptr, ptr, ptr, i64, i32, i32, ptr, i32, %struct.AVRational, %struct.AVRational, %struct.AVRational, i32, i32, i32, i32, i32, %struct.AVRational, i32, i32, i32, i32, i32, i32, i32, i32, i32, i32, i32, ptr, ptr, i32, float, float, float, float, float, float, float, float, float, i32, i32, i32, i32, i32, i32, i32, i32, i32, i32, i32, i32, ptr, ptr, ptr, i32, i32, i32, i32, i32, i32, i32, i32, i32, i32, %struct.AVChannelLayout, i32, i32, i32, i32, i32, i32, i32, i32, ptr, i32, i32, i32, float, float, i32, i32, i32, i32, i32, ptr, i64, i64, float, float, i32, i32, ptr, ptr, i32, i32, i32, i32, i32, ptr, ptr, ptr, ptr, i32, i32, [8 x i64], i32, i32, i32, i32, i32, i32, i32, ptr, ptr, i32, i32, i32, i32, i32, i32, i32, i32, i32, i32, ptr, ptr, i32, i32, ptr, ptr, ptr, ptr, i32, i32, i64, i32, i32, i64, ptr, i64, ptr, i32, ptr, i32 }
%struct.AVRational = type { i32, i32 }
%struct.AVChannelLayout = type { i32, i32, %union.anon.0, ptr }
%union.anon.0 = type { i64 }
%struct.NuvContext = type { ptr, i32, i32, i32, i32, i32, ptr, [64 x i32], [64 x i32], [8 x i8], %struct.RTJpegContext }
%struct.RTJpegContext = type { i32, i32, %struct.IDCTDSPContext, [64 x i8], [64 x i32], [64 x i32], [64 x i16] }
%struct.IDCTDSPContext = type { ptr, ptr, ptr, ptr, ptr, ptr, [64 x i8], i32, i32 }

@.str.3 = private unnamed_addr constant [38 x i8] c"Can't allocate decompression buffer.\0A\00", align 1
@ff_mjpeg_std_luminance_quant_tbl = external hidden constant [64 x i8], align 16
@ff_mjpeg_std_chrominance_quant_tbl = external hidden constant [64 x i8], align 16

; Function Attrs: nounwind uwtable
define internal void @get_quant_quality(ptr noundef %0, i32 noundef %1) #1 {
  %3 = alloca ptr, align 8
  %4 = alloca i32, align 4
  %5 = alloca i32, align 4
  store ptr %0, ptr %3, align 8, !tbaa !29
  store i32 %1, ptr %4, align 4, !tbaa !47
  call void @llvm.lifetime.start.p0(i64 4, ptr %5) #6
  %6 = load i32, ptr %4, align 4, !tbaa !47
  %7 = icmp sgt i32 %6, 1
  br i1 %7, label %8, label %10

8:                                                ; preds = %2
  %9 = load i32, ptr %4, align 4, !tbaa !47
  br label %11

10:                                               ; preds = %2
  br label %11

11:                                               ; preds = %10, %8
  %12 = phi i32 [ %9, %8 ], [ 1, %10 ]
  store i32 %12, ptr %4, align 4, !tbaa !47
  store i32 0, ptr %5, align 4, !tbaa !47
  br label %13

13:                                               ; preds = %43, %11
  %14 = load i32, ptr %5, align 4, !tbaa !47
  %15 = icmp slt i32 %14, 64
  br i1 %15, label %16, label %46

16:                                               ; preds = %13
  %17 = load i32, ptr %5, align 4, !tbaa !47
  %18 = sext i32 %17 to i64
  %19 = getelementptr inbounds [64 x i8], ptr @ff_mjpeg_std_luminance_quant_tbl, i64 0, i64 %18
  %20 = load i8, ptr %19, align 1, !tbaa !57
  %21 = zext i8 %20 to i32
  %22 = shl i32 %21, 7
  %23 = load i32, ptr %4, align 4, !tbaa !47
  %24 = sdiv i32 %22, %23
  %25 = load ptr, ptr %3, align 8, !tbaa !29
  %26 = getelementptr inbounds nuw %struct.NuvContext, ptr %25, i32 0, i32 7
  %27 = load i32, ptr %5, align 4, !tbaa !47
  %28 = sext i32 %27 to i64
  %29 = getelementptr inbounds [64 x i32], ptr %26, i64 0, i64 %28
  store i32 %24, ptr %29, align 4, !tbaa !47
  %30 = load i32, ptr %5, align 4, !tbaa !47
  %31 = sext i32 %30 to i64
  %32 = getelementptr inbounds [64 x i8], ptr @ff_mjpeg_std_chrominance_quant_tbl, i64 0, i64 %31
  %33 = load i8, ptr %32, align 1, !tbaa !57
  %34 = zext i8 %33 to i32
  %35 = shl i32 %34, 7
  %36 = load i32, ptr %4, align 4, !tbaa !47
  %37 = sdiv i32 %35, %36
  %38 = load ptr, ptr %3, align 8, !tbaa !29
  %39 = getelementptr inbounds nuw %struct.NuvContext, ptr %38, i32 0, i32 8
  %40 = load i32, ptr %5, align 4, !tbaa !47
  %41 = sext i32 %40 to i64
  %42 = getelementptr inbounds [64 x i32], ptr %39, i64 0, i64 %41
  store i32 %37, ptr %42, align 4, !tbaa !47
  br label %43

43:                                               ; preds = %16
  %44 = load i32, ptr %5, align 4, !tbaa !47
  %45 = add nsw i32 %44, 1
  store i32 %45, ptr %5, align 4, !tbaa !47
  br label %13, !llvm.loop !69

46:                                               ; preds = %13
  call void @llvm.lifetime.end.p0(i64 4, ptr %5) #6
  ret void
}

; Function Attrs: nounwind uwtable
define internal i32 @codec_reinit(ptr noundef %0, i32 noundef %1, i32 noundef %2, i32 noundef %3) #1 {
  %5 = alloca i32, align 4
  %6 = alloca ptr, align 8
  %7 = alloca i32, align 4
  %8 = alloca i32, align 4
  %9 = alloca i32, align 4
  %10 = alloca ptr, align 8
  %11 = alloca i32, align 4
  %12 = alloca i64, align 8
  %13 = alloca i32, align 4
  store ptr %0, ptr %6, align 8, !tbaa !4
  store i32 %1, ptr %7, align 4, !tbaa !47
  store i32 %2, ptr %8, align 4, !tbaa !47
  store i32 %3, ptr %9, align 4, !tbaa !47
  call void @llvm.lifetime.start.p0(i64 8, ptr %10) #6
  %14 = load ptr, ptr %6, align 8, !tbaa !4
  %15 = getelementptr inbounds nuw %struct.AVCodecContext, ptr %14, i32 0, i32 6
  %16 = load ptr, ptr %15, align 8, !tbaa !9
  store ptr %16, ptr %10, align 8, !tbaa !29
  call void @llvm.lifetime.start.p0(i64 4, ptr %11) #6
  %17 = load i32, ptr %7, align 4, !tbaa !47
  %18 = add nsw i32 %17, 2
  %19 = sub nsw i32 %18, 1
  %20 = and i32 %19, -2
  store i32 %20, ptr %7, align 4, !tbaa !47
  %21 = load i32, ptr %8, align 4, !tbaa !47
  %22 = add nsw i32 %21, 2
  %23 = sub nsw i32 %22, 1
  %24 = and i32 %23, -2
  store i32 %24, ptr %8, align 4, !tbaa !47
  %25 = load i32, ptr %9, align 4, !tbaa !47
  %26 = icmp sge i32 %25, 0
  br i1 %26, label %27, label %30

27:                                               ; preds = %4
  %28 = load ptr, ptr %10, align 8, !tbaa !29
  %29 = load i32, ptr %9, align 4, !tbaa !47
  call void @get_quant_quality(ptr noundef %28, i32 noundef %29)
  br label %30

30:                                               ; preds = %27, %4
  %31 = load i32, ptr %7, align 4, !tbaa !47
  %32 = load ptr, ptr %10, align 8, !tbaa !29
  %33 = getelementptr inbounds nuw %struct.NuvContext, ptr %32, i32 0, i32 3
  %34 = load i32, ptr %33, align 16, !tbaa !39
  %35 = icmp ne i32 %31, %34
  br i1 %35, label %42, label %36

36:                                               ; preds = %30
  %37 = load i32, ptr %8, align 4, !tbaa !47
  %38 = load ptr, ptr %10, align 8, !tbaa !29
  %39 = getelementptr inbounds nuw %struct.NuvContext, ptr %38, i32 0, i32 4
  %40 = load i32, ptr %39, align 4, !tbaa !40
  %41 = icmp ne i32 %37, %40
  br i1 %41, label %42, label %100

42:                                               ; preds = %36, %30
  call void @llvm.lifetime.start.p0(i64 8, ptr %12) #6
  %43 = load i32, ptr %8, align 4, !tbaa !47
  %44 = sext i32 %43 to i64
  %45 = load i32, ptr %7, align 4, !tbaa !47
  %46 = sext i32 %45 to i64
  %47 = mul nsw i64 %44, %46
  %48 = mul nsw i64 %47, 3
  %49 = sdiv i64 %48, 2
  %50 = add nsw i64 %49, 64
  %51 = add nsw i64 %50, 12
  store i64 %51, ptr %12, align 8, !tbaa !68
  %52 = load i64, ptr %12, align 8, !tbaa !68
  %53 = icmp sgt i64 %52, 268435455
  br i1 %53, label %54, label %55

54:                                               ; preds = %42
  store i32 -1, ptr %5, align 4
  store i32 1, ptr %13, align 4
  br label %99

55:                                               ; preds = %42
  %56 = load ptr, ptr %6, align 8, !tbaa !4
  %57 = load i32, ptr %7, align 4, !tbaa !47
  %58 = load i32, ptr %8, align 4, !tbaa !47
  %59 = call i32 @ff_set_dimensions(ptr noundef %56, i32 noundef %57, i32 noundef %58)
  store i32 %59, ptr %11, align 4, !tbaa !47
  %60 = icmp slt i32 %59, 0
  br i1 %60, label %61, label %63

61:                                               ; preds = %55
  %62 = load i32, ptr %11, align 4, !tbaa !47
  store i32 %62, ptr %5, align 4
  store i32 1, ptr %13, align 4
  br label %99

63:                                               ; preds = %55
  %64 = load i32, ptr %7, align 4, !tbaa !47
  %65 = load ptr, ptr %10, align 8, !tbaa !29
  %66 = getelementptr inbounds nuw %struct.NuvContext, ptr %65, i32 0, i32 3
  store i32 %64, ptr %66, align 16, !tbaa !39
  %67 = load i32, ptr %8, align 4, !tbaa !47
  %68 = load ptr, ptr %10, align 8, !tbaa !29
  %69 = getelementptr inbounds nuw %struct.NuvContext, ptr %68, i32 0, i32 4
  store i32 %67, ptr %69, align 4, !tbaa !40
  %70 = load ptr, ptr %10, align 8, !tbaa !29
  %71 = getelementptr inbounds nuw %struct.NuvContext, ptr %70, i32 0, i32 6
  %72 = load ptr, ptr %10, align 8, !tbaa !29
  %73 = getelementptr inbounds nuw %struct.NuvContext, ptr %72, i32 0, i32 5
  %74 = load i64, ptr %12, align 8, !tbaa !68
  call void @av_fast_malloc(ptr noundef %71, ptr noundef %73, i64 noundef %74)
  %75 = load ptr, ptr %10, align 8, !tbaa !29
  %76 = getelementptr inbounds nuw %struct.NuvContext, ptr %75, i32 0, i32 6
  %77 = load ptr, ptr %76, align 16, !tbaa !37
  %78 = icmp ne ptr %77, null
  br i1 %78, label %81, label %79

79:                                               ; preds = %63
  %80 = load ptr, ptr %6, align 8, !tbaa !4
  call void (ptr, i32, ptr, ...) @av_log(ptr noundef %80, i32 noundef 16, ptr noundef @.str.3)
  store i32 -12, ptr %5, align 4
  store i32 1, ptr %13, align 4
  br label %99

81:                                               ; preds = %63
  %82 = load ptr, ptr %10, align 8, !tbaa !29
  %83 = getelementptr inbounds nuw %struct.NuvContext, ptr %82, i32 0, i32 10
  %84 = load ptr, ptr %10, align 8, !tbaa !29
  %85 = getelementptr inbounds nuw %struct.NuvContext, ptr %84, i32 0, i32 3
  %86 = load i32, ptr %85, align 16, !tbaa !39
  %87 = load ptr, ptr %10, align 8, !tbaa !29
  %88 = getelementptr inbounds nuw %struct.NuvContext, ptr %87, i32 0, i32 4
  %89 = load i32, ptr %88, align 4, !tbaa !40
  %90 = load ptr, ptr %10, align 8, !tbaa !29
  %91 = getelementptr inbounds nuw %struct.NuvContext, ptr %90, i32 0, i32 7
  %92 = getelementptr inbounds [64 x i32], ptr %91, i64 0, i64 0
  %93 = load ptr, ptr %10, align 8, !tbaa !29
  %94 = getelementptr inbounds nuw %struct.NuvContext, ptr %93, i32 0, i32 8
  %95 = getelementptr inbounds [64 x i32], ptr %94, i64 0, i64 0
  call void @ff_rtjpeg_decode_init(ptr noundef %83, i32 noundef %86, i32 noundef %89, ptr noundef %92, ptr noundef %95)
  %96 = load ptr, ptr %10, align 8, !tbaa !29
  %97 = getelementptr inbounds nuw %struct.NuvContext, ptr %96, i32 0, i32 0
  %98 = load ptr, ptr %97, align 16, !tbaa !31
  call void @av_frame_unref(ptr noundef %98)
  store i32 1, ptr %5, align 4
  store i32 1, ptr %13, align 4
  br label %99

99:                                               ; preds = %81, %79, %61, %54
  call void @llvm.lifetime.end.p0(i64 8, ptr %12) #6
  br label %123

100:                                              ; preds = %36
  %101 = load i32, ptr %9, align 4, !tbaa !47
  %102 = load ptr, ptr %10, align 8, !tbaa !29
  %103 = getelementptr inbounds nuw %struct.NuvContext, ptr %102, i32 0, i32 2
  %104 = load i32, ptr %103, align 4, !tbaa !38
  %105 = icmp ne i32 %101, %104
  br i1 %105, label %106, label %121

106:                                              ; preds = %100
  %107 = load ptr, ptr %10, align 8, !tbaa !29
  %108 = getelementptr inbounds nuw %struct.NuvContext, ptr %107, i32 0, i32 10
  %109 = load ptr, ptr %10, align 8, !tbaa !29
  %110 = getelementptr inbounds nuw %struct.NuvContext, ptr %109, i32 0, i32 3
  %111 = load i32, ptr %110, align 16, !tbaa !39
  %112 = load ptr, ptr %10, align 8, !tbaa !29
  %113 = getelementptr inbounds nuw %struct.NuvContext, ptr %112, i32 0, i32 4
  %114 = load i32, ptr %113, align 4, !tbaa !40
  %115 = load ptr, ptr %10, align 8, !tbaa !29
  %116 = getelementptr inbounds nuw %struct.NuvContext, ptr %115, i32 0, i32 7
  %117 = getelementptr inbounds [64 x i32], ptr %116, i64 0, i64 0
  %118 = load ptr, ptr %10, align 8, !tbaa !29
  %119 = getelementptr inbounds nuw %struct.NuvContext, ptr %118, i32 0, i32 8
  %120 = getelementptr inbounds [64 x i32], ptr %119, i64 0, i64 0
  call void @ff_rtjpeg_decode_init(ptr noundef %108, i32 noundef %111, i32 noundef %114, ptr noundef %117, ptr noundef %120)
  br label %121

121:                                              ; preds = %106, %100
  br label %122

122:                                              ; preds = %121
  store i32 0, ptr %5, align 4
  store i32 1, ptr %13, align 4
  br label %123

123:                                              ; preds = %122, %99
  call void @llvm.lifetime.end.p0(i64 4, ptr %11) #6
  call void @llvm.lifetime.end.p0(i64 8, ptr %10) #6
  %124 = load i32, ptr %5, align 4
  ret i32 %124
}