; Function Attrs: nounwind uwtable
define internal fastcc range(i32 -2147483648, 2) i32 @codec_reinit(ptr noundef %0, i32 noundef %1, i32 noundef %2, i32 noundef range(i32 -1, 256) %3) unnamed_addr #1 {
  %5 = getelementptr inbounds nuw i8, ptr %0, i64 32
  %6 = load ptr, ptr %5, align 8, !tbaa !4
  %7 = add nsw i32 %1, 1
  %8 = and i32 %7, -2
  %9 = add nsw i32 %2, 1
  %10 = and i32 %9, -2
  %11 = icmp sgt i32 %3, -1
  br i1 %11, label %12, label %get_quant_quality.exit

12:                                               ; preds = %4
  %13 = tail call i32 @llvm.umax.i32(i32 range(i32 0, 256) %3, i32 1)
  %14 = getelementptr inbounds nuw i8, ptr %6, i64 40
  %15 = getelementptr inbounds nuw i8, ptr %6, i64 296
  %.rhs.trunc.i = trunc nuw nsw i32 %13 to i16
  br label %16

16:                                               ; preds = %16, %12
  %indvars.iv.i = phi i64 [ 0, %12 ], [ %indvars.iv.next.i, %16 ]
  %17 = getelementptr inbounds nuw [64 x i8], ptr @ff_mjpeg_std_luminance_quant_tbl, i64 0, i64 %indvars.iv.i
  %18 = load i8, ptr %17, align 1, !tbaa !41
  %19 = zext i8 %18 to i16
  %.lhs.trunc.i = shl nuw nsw i16 %19, 7
  %20 = udiv i16 %.lhs.trunc.i, %.rhs.trunc.i
  %.zext.i = zext nneg i16 %20 to i32
  %21 = getelementptr inbounds nuw [64 x i32], ptr %14, i64 0, i64 %indvars.iv.i
  store i32 %.zext.i, ptr %21, align 4, !tbaa !42
  %22 = getelementptr inbounds nuw [64 x i8], ptr @ff_mjpeg_std_chrominance_quant_tbl, i64 0, i64 %indvars.iv.i
  %23 = load i8, ptr %22, align 1, !tbaa !41
  %24 = zext i8 %23 to i16
  %.lhs.trunc13.i = shl nuw nsw i16 %24, 7
  %25 = udiv i16 %.lhs.trunc13.i, %.rhs.trunc.i
  %.zext15.i = zext nneg i16 %25 to i32
  %26 = getelementptr inbounds nuw [64 x i32], ptr %15, i64 0, i64 %indvars.iv.i
  store i32 %.zext15.i, ptr %26, align 4, !tbaa !42
  %indvars.iv.next.i = add nuw nsw i64 %indvars.iv.i, 1
  %exitcond.not.i = icmp eq i64 %indvars.iv.next.i, 64
  br i1 %exitcond.not.i, label %get_quant_quality.exit, label %16, !llvm.loop !60

get_quant_quality.exit:                           ; preds = %16, %4
  %27 = getelementptr inbounds nuw i8, ptr %6, i64 16
  %28 = load i32, ptr %27, align 16, !tbaa !35
  %.not = icmp eq i32 %8, %28
  br i1 %.not, label %29, label %32

29:                                               ; preds = %get_quant_quality.exit
  %30 = getelementptr inbounds nuw i8, ptr %6, i64 20
  %31 = load i32, ptr %30, align 4, !tbaa !36
  %.not44 = icmp eq i32 %10, %31
  br i1 %.not44, label %56, label %32

32:                                               ; preds = %29, %get_quant_quality.exit
  %33 = sext i32 %10 to i64
  %34 = sext i32 %8 to i64
  %35 = mul nsw i64 %33, %34
  %36 = ashr exact i64 %35, 1
  %37 = add nsw i64 %36, %35
  %38 = add nsw i64 %37, 76
  %39 = icmp sgt i64 %37, 268435379
  br i1 %39, label %63, label %40

40:                                               ; preds = %32
  %41 = tail call i32 @ff_set_dimensions(ptr noundef nonnull %0, i32 noundef %8, i32 noundef %10) #6
  %42 = icmp slt i32 %41, 0
  br i1 %42, label %63, label %43

43:                                               ; preds = %40
  store i32 %8, ptr %27, align 16, !tbaa !35
  %44 = getelementptr inbounds nuw i8, ptr %6, i64 20
  store i32 %10, ptr %44, align 4, !tbaa !36
  %45 = getelementptr inbounds nuw i8, ptr %6, i64 32
  %46 = getelementptr inbounds nuw i8, ptr %6, i64 24
  tail call void @av_fast_malloc(ptr noundef nonnull %45, ptr noundef nonnull %46, i64 noundef %38) #6
  %47 = load ptr, ptr %45, align 16, !tbaa !33
  %.not46 = icmp eq ptr %47, null
  br i1 %.not46, label %48, label %49

48:                                               ; preds = %43
  tail call void (ptr, i32, ptr, ...) @av_log(ptr noundef nonnull %0, i32 noundef 16, ptr noundef nonnull @.str.3) #6
  br label %63

49:                                               ; preds = %43
  %50 = getelementptr inbounds nuw i8, ptr %6, i64 560
  %51 = load i32, ptr %27, align 16, !tbaa !35
  %52 = load i32, ptr %44, align 4, !tbaa !36
  %53 = getelementptr inbounds nuw i8, ptr %6, i64 40
  %54 = getelementptr inbounds nuw i8, ptr %6, i64 296
  tail call void @ff_rtjpeg_decode_init(ptr noundef nonnull %50, i32 noundef %51, i32 noundef %52, ptr noundef nonnull %53, ptr noundef nonnull %54) #6
  %55 = load ptr, ptr %6, align 16, !tbaa !27
  tail call void @av_frame_unref(ptr noundef %55) #6
  br label %63

56:                                               ; preds = %29
  %57 = getelementptr inbounds nuw i8, ptr %6, i64 12
  %58 = load i32, ptr %57, align 4, !tbaa !34
  %.not45 = icmp eq i32 %3, %58
  br i1 %.not45, label %63, label %59

59:                                               ; preds = %56
  %60 = getelementptr inbounds nuw i8, ptr %6, i64 560
  %61 = getelementptr inbounds nuw i8, ptr %6, i64 40
  %62 = getelementptr inbounds nuw i8, ptr %6, i64 296
  tail call void @ff_rtjpeg_decode_init(ptr noundef nonnull %60, i32 noundef %8, i32 noundef %10, ptr noundef nonnull %61, ptr noundef nonnull %62) #6
  br label %63

63:                                               ; preds = %59, %56, %48, %49, %32, %40
  %.1 = phi i32 [ 1, %49 ], [ -12, %48 ], [ -1, %32 ], [ %41, %40 ], [ 0, %56 ], [ 0, %59 ]
  ret i32 %.1
}